target datalayout = "e-m:e-p270:32:32-p271:32:32-p272:64:64-i64:64-i128:128-f80:128-n8:16:32:64-S128"
target triple = "x86_64-pc-linux-gnu"

@.str.61 = private unnamed_addr constant [4 x i8] c"a2a\00", align 1
@.str.63 = private unnamed_addr constant [5 x i8] c"hemi\00", align 1
@.str.65 = private unnamed_addr constant [5 x i8] c"quad\00", align 1
@.str.67 = private unnamed_addr constant [5 x i8] c"snc2\00", align 1
@.str.69 = private unnamed_addr constant [5 x i8] c"snc4\00", align 1

; Function Attrs: nounwind uwtable
define internal zeroext i16 @_knl_numa_token(ptr noundef %0) #0 {
  %2 = alloca ptr, align 8
  %3 = alloca i16, align 2
  store ptr %0, ptr %2, align 8
  call void @llvm.lifetime.start.p0(i64 2, ptr %3) #9
  store i16 0, ptr %3, align 2
  %4 = load ptr, ptr %2, align 8
  %5 = call i32 @xstrcasecmp(ptr noundef %4, ptr noundef @.str.61)
  %6 = icmp ne i32 %5, 0
  br i1 %6, label %12, label %7

7:                                                ; preds = %1
  %8 = load i16, ptr %3, align 2
  %9 = zext i16 %8 to i32
  %10 = or i32 %9, 1
  %11 = trunc i32 %10 to i16
  store i16 %11, ptr %3, align 2
  br label %52

12:                                               ; preds = %1
  %13 = load ptr, ptr %2, align 8
  %14 = call i32 @xstrcasecmp(ptr noundef %13, ptr noundef @.str.67)
  %15 = icmp ne i32 %14, 0
  br i1 %15, label %21, label %16

16:                                               ; preds = %12
  %17 = load i16, ptr %3, align 2
  %18 = zext i16 %17 to i32
  %19 = or i32 %18, 2
  %20 = trunc i32 %19 to i16
  store i16 %20, ptr %3, align 2
  br label %51

21:                                               ; preds = %12
  %22 = load ptr, ptr %2, align 8
  %23 = call i32 @xstrcasecmp(ptr noundef %22, ptr noundef @.str.69)
  %24 = icmp ne i32 %23, 0
  br i1 %24, label %30, label %25

25:                                               ; preds = %21
  %26 = load i16, ptr %3, align 2
  %27 = zext i16 %26 to i32
  %28 = or i32 %27, 4
  %29 = trunc i32 %28 to i16
  store i16 %29, ptr %3, align 2
  br label %50

30:                                               ; preds = %21
  %31 = load ptr, ptr %2, align 8
  %32 = call i32 @xstrcasecmp(ptr noundef %31, ptr noundef @.str.63)
  %33 = icmp ne i32 %32, 0
  br i1 %33, label %39, label %34

34:                                               ; preds = %30
  %35 = load i16, ptr %3, align 2
  %36 = zext i16 %35 to i32
  %37 = or i32 %36, 8
  %38 = trunc i32 %37 to i16
  store i16 %38, ptr %3, align 2
  br label %49

39:                                               ; preds = %30
  %40 = load ptr, ptr %2, align 8
  %41 = call i32 @xstrcasecmp(ptr noundef %40, ptr noundef @.str.65)
  %42 = icmp ne i32 %41, 0
  br i1 %42, label %48, label %43

43:                                               ; preds = %39
  %44 = load i16, ptr %3, align 2
  %45 = zext i16 %44 to i32
  %46 = or i32 %45, 16
  %47 = trunc i32 %46 to i16
  store i16 %47, ptr %3, align 2
  br label %48

48:                                               ; preds = %43, %39
  br label %49

49:                                               ; preds = %48, %34
  br label %50

50:                                               ; preds = %49, %25
  br label %51

51:                                               ; preds = %50, %16
  br label %52

52:                                               ; preds = %51, %7
  %53 = load i16, ptr %3, align 2
  call void @llvm.lifetime.end.p0(i64 2, ptr %3) #9
  ret i16 %53
}

; Function Attrs: nounwind uwtable
define dso_local zeroext i1 @node_features_p_changeable_feature(ptr noundef %0) #0 {
  %2 = alloca i1, align 1
  %3 = alloca ptr, align 8
  store ptr %0, ptr %3, align 8
  %4 = load ptr, ptr %3, align 8
  %5 = call zeroext i16 @_knl_mcdram_token(ptr noundef %4)
  %6 = zext i16 %5 to i32
  %7 = icmp ne i32 %6, 0
  br i1 %7, label %13, label %8

8:                                                ; preds = %1
  %9 = load ptr, ptr %3, align 8
  %10 = call zeroext i16 @_knl_numa_token(ptr noundef %9)
  %11 = zext i16 %10 to i32
  %12 = icmp ne i32 %11, 0
  br i1 %12, label %13, label %14

13:                                               ; preds = %8, %1
  store i1 true, ptr %2, align 1
  br label %15

14:                                               ; preds = %8
  store i1 false, ptr %2, align 1
  br label %15

15:                                               ; preds = %14, %13
  %16 = load i1, ptr %2, align 1
  ret i1 %16
}